; Function Attrs: mustprogress uwtable
define hidden void @_ZN5zxing12BinaryBitmap22rotateCounterClockwiseEv(ptr dead_on_unwind noalias writable writeonly sret(%"class.zxing::Ref.4") align 8 captures(none) initializes((0, 8)) %0, ptr noundef nonnull readonly align 8 captures(none) dereferenceable(32) %1) local_unnamed_addr #3 align 2 personality ptr @__gxx_personality_v0 {
  %3 = getelementptr inbounds nuw i8, ptr %1, i64 16
  %4 = load ptr, ptr %3, align 8, !tbaa !10
  %5 = tail call noundef i32 @_ZN5zxing9Binarizer22rotateCounterClockwiseEv(ptr noundef nonnull align 8 dereferenceable(72) %4)
  %6 = tail call noalias noundef nonnull dereferenceable(32) ptr @_Znwm(i64 noundef 32) #11
  %7 = load ptr, ptr %3, align 8, !tbaa !10
  %.not.i.i = icmp eq ptr %7, null
  br i1 %.not.i.i, label %.thread, label %10

.thread:                                          ; preds = %2
  %8 = getelementptr inbounds nuw i8, ptr %6, i64 8
  store ptr getelementptr inbounds nuw inrange(-16, 16) (i8, ptr @_ZTVN5zxing12BinaryBitmapE, i64 16), ptr %6, align 8, !tbaa !8
  %9 = getelementptr inbounds nuw i8, ptr %6, i64 16
  tail call void @llvm.memset.p0.i64(ptr noundef nonnull align 8 dereferenceable(16) %9, i8 0, i64 16, i1 false)
  store i32 1, ptr %8, align 8, !tbaa !3
  store ptr %6, ptr %0, align 8, !tbaa !29
  br label %_ZN5zxing3RefINS_9BinarizerEED2Ev.exit

10:                                               ; preds = %2
  %11 = getelementptr inbounds nuw i8, ptr %7, i64 8
  %12 = load i32, ptr %11, align 8, !tbaa !3
  %13 = add i32 %12, 1
  %14 = getelementptr inbounds nuw i8, ptr %6, i64 8
  store ptr getelementptr inbounds nuw inrange(-16, 16) (i8, ptr @_ZTVN5zxing12BinaryBitmapE, i64 16), ptr %6, align 8, !tbaa !8
  %15 = getelementptr inbounds nuw i8, ptr %6, i64 16
  store ptr %7, ptr %15, align 8, !tbaa !10
  %16 = getelementptr inbounds nuw i8, ptr %6, i64 24
  store ptr null, ptr %16, align 8, !tbaa !14
  store i32 1, ptr %14, align 8, !tbaa !3
  store ptr %6, ptr %0, align 8, !tbaa !29
  store i32 %13, ptr %11, align 8, !tbaa !3
  %17 = icmp eq i32 %13, 0
  br i1 %17, label %18, label %_ZN5zxing3RefINS_9BinarizerEED2Ev.exit

18:                                               ; preds = %10
  store i32 -559026175, ptr %11, align 8, !tbaa !3
  %19 = load ptr, ptr %7, align 8, !tbaa !8
  %20 = getelementptr inbounds nuw i8, ptr %19, i64 8
  %21 = load ptr, ptr %20, align 8
  tail call void %21(ptr noundef nonnull align 8 dereferenceable(12) %7) #9
  br label %_ZN5zxing3RefINS_9BinarizerEED2Ev.exit

_ZN5zxing3RefINS_9BinarizerEED2Ev.exit:           ; preds = %.thread, %10, %18
  ret void
}